(imatplotlib.font_manager
FontManager
p1
(dp2
S'afm_lookup_cache'
p3
(dp4
sS'ttflist'
p5
(lp6
ccopy_reg
_reconstructor
p7
(cmatplotlib.font_manager
FontEntry
p8
c__builtin__
object
p9
NtRp10
(dp11
S'style'
p12
S'normal'
p13
sS'name'
p14
S'Bitstream Vera Serif'
p15
sS'weight'
p16
I400
sS'stretch'
p17
g13
sS'variant'
p18
g13
sS'fname'
p19
S'/casa-release-4.6.0-el6/lib/python2.7/site-packages/matplotlib/mpl-data/fonts/ttf/VeraSe.ttf'
p20
sS'size'
p21
S'scalable'
p22
sbag7
(g8
g9
NtRp23
(dp24
g12
S'oblique'
p25
sg14
S'Bitstream Vera Sans Mono'
p26
sg16
I700
sg17
g13
sg18
g13
sg19
S'/casa-release-4.6.0-el6/lib/python2.7/site-packages/matplotlib/mpl-data/fonts/ttf/VeraMoBI.ttf'
p27
sg21
g22
sbag7
(g8
g9
NtRp28
(dp29
g12
g13
sg14
S'Bitstream Vera Sans Mono'
p30
sg16
I700
sg17
g13
sg18
g13
sg19
S'/casa-release-4.6.0-el6/lib/python2.7/site-packages/matplotlib/mpl-data/fonts/ttf/VeraMoBd.ttf'
p31
sg21
g22
sbag7
(g8
g9
NtRp32
(dp33
g12
g13
sg14
S'cmsy10'
p34
sg16
I400
sg17
g13
sg18
g13
sg19
S'/casa-release-4.6.0-el6/lib/python2.7/site-packages/matplotlib/mpl-data/fonts/ttf/cmsy10.ttf'
p35
sg21
g22
sbag7
(g8
g9
NtRp36
(dp37
g12
g13
sg14
S'cmr10'
p38
sg16
I400
sg17
g13
sg18
g13
sg19
S'/casa-release-4.6.0-el6/lib/python2.7/site-packages/matplotlib/mpl-data/fonts/ttf/cmr10.ttf'
p39
sg21
g22
sbag7
(g8
g9
NtRp40
(dp41
g12
g13
sg14
S'STIXGeneral'
p42
sg16
I700
sg17
g13
sg18
g13
sg19
S'/casa-release-4.6.0-el6/lib/python2.7/site-packages/matplotlib/mpl-data/fonts/ttf/STIXGeneralBol.ttf'
p43
sg21
g22
sbag7
(g8
g9
NtRp44
(dp45
g12
g13
sg14
S'cmmi10'
p46
sg16
I400
sg17
g13
sg18
g13
sg19
S'/casa-release-4.6.0-el6/lib/python2.7/site-packages/matplotlib/mpl-data/fonts/ttf/cmmi10.ttf'
p47
sg21
g22
sbag7
(g8
g9
NtRp48
(dp49
g12
g13
sg14
S'STIXGeneral'
p50
sg16
I400
sg17
g13
sg18
g13
sg19
S'/casa-release-4.6.0-el6/lib/python2.7/site-packages/matplotlib/mpl-data/fonts/ttf/STIXGeneral.ttf'
p51
sg21
g22
sbag7
(g8
g9
NtRp52
(dp53
g12
S'italic'
p54
sg14
S'STIXNonUnicode'
p55
sg16
I400
sg17
g13
sg18
g13
sg19
S'/casa-release-4.6.0-el6/lib/python2.7/site-packages/matplotlib/mpl-data/fonts/ttf/STIXNonUniIta.ttf'
p56
sg21
g22
sbag7
(g8
g9
NtRp57
(dp58
g12
g13
sg14
S'STIXSizeFiveSym'
p59
sg16
I400
sg17
g13
sg18
g13
sg19
S'/casa-release-4.6.0-el6/lib/python2.7/site-packages/matplotlib/mpl-data/fonts/ttf/STIXSizFiveSymReg.ttf'
p60
sg21
g22
sbag7
(g8
g9
NtRp61
(dp62
g12
g54
sg14
S'STIXGeneral'
p63
sg16
I400
sg17
g13
sg18
g13
sg19
S'/casa-release-4.6.0-el6/lib/python2.7/site-packages/matplotlib/mpl-data/fonts/ttf/STIXGeneralItalic.ttf'
p64
sg21
g22
sbag7
(g8
g9
NtRp65
(dp66
g12
g25
sg14
S'Bitstream Vera Sans'
p67
sg16
I700
sg17
g13
sg18
g13
sg19
S'/casa-release-4.6.0-el6/lib/python2.7/site-packages/matplotlib/mpl-data/fonts/ttf/VeraBI.ttf'
p68
sg21
g22
sbag7
(g8
g9
NtRp69
(dp70
g12
g54
sg14
S'STIXGeneral'
p71
sg16
I700
sg17
g13
sg18
g13
sg19
S'/casa-release-4.6.0-el6/lib/python2.7/site-packages/matplotlib/mpl-data/fonts/ttf/STIXGeneralBolIta.ttf'
p72
sg21
g22
sbag7
(g8
g9
NtRp73
(dp74
g12
g54
sg14
S'STIXNonUnicode'
p75
sg16
I700
sg17
g13
sg18
g13
sg19
S'/casa-release-4.6.0-el6/lib/python2.7/site-packages/matplotlib/mpl-data/fonts/ttf/STIXNonUniBolIta.ttf'
p76
sg21
g22
sbag7
(g8
g9
NtRp77
(dp78
g12
g13
sg14
S'STIXSizeThreeSym'
p79
sg16
I400
sg17
g13
sg18
g13
sg19
S'/casa-release-4.6.0-el6/lib/python2.7/site-packages/matplotlib/mpl-data/fonts/ttf/STIXSizThreeSymReg.ttf'
p80
sg21
g22
sbag7
(g8
g9
NtRp81
(dp82
g12
g13
sg14
S'STIXSizeTwoSym'
p83
sg16
I400
sg17
g13
sg18
g13
sg19
S'/casa-release-4.6.0-el6/lib/python2.7/site-packages/matplotlib/mpl-data/fonts/ttf/STIXSizTwoSymReg.ttf'
p84
sg21
g22
sbag7
(g8
g9
NtRp85
(dp86
g12
g13
sg14
S'cmb10'
p87
sg16
I400
sg17
g13
sg18
g13
sg19
S'/casa-release-4.6.0-el6/lib/python2.7/site-packages/matplotlib/mpl-data/fonts/ttf/cmb10.ttf'
p88
sg21
g22
sbag7
(g8
g9
NtRp89
(dp90
g12
g13
sg14
S'cmtt10'
p91
sg16
I400
sg17
g13
sg18
g13
sg19
S'/casa-release-4.6.0-el6/lib/python2.7/site-packages/matplotlib/mpl-data/fonts/ttf/cmtt10.ttf'
p92
sg21
g22
sbag7
(g8
g9
NtRp93
(dp94
g12
g13
sg14
S'Bitstream Vera Serif'
p95
sg16
I700
sg17
g13
sg18
g13
sg19
S'/casa-release-4.6.0-el6/lib/python2.7/site-packages/matplotlib/mpl-data/fonts/ttf/VeraSeBd.ttf'
p96
sg21
g22
sbag7
(g8
g9
NtRp97
(dp98
g12
g13
sg14
S'Bitstream Vera Sans'
p99
sg16
I400
sg17
g13
sg18
g13
sg19
S'/casa-release-4.6.0-el6/lib/python2.7/site-packages/matplotlib/mpl-data/fonts/ttf/Vera.ttf'
p100
sg21
g22
sbag7
(g8
g9
NtRp101
(dp102
g12
g13
sg14
S'STIXSizeFourSym'
p103
sg16
I700
sg17
g13
sg18
g13
sg19
S'/casa-release-4.6.0-el6/lib/python2.7/site-packages/matplotlib/mpl-data/fonts/ttf/STIXSizFourSymBol.ttf'
p104
sg21
g22
sbag7
(g8
g9
NtRp105
(dp106
g12
g13
sg14
S'cmex10'
p107
sg16
I400
sg17
g13
sg18
g13
sg19
S'/casa-release-4.6.0-el6/lib/python2.7/site-packages/matplotlib/mpl-data/fonts/ttf/cmex10.ttf'
p108
sg21
g22
sbag7
(g8
g9
NtRp109
(dp110
g12
g13
sg14
S'Bitstream Vera Sans Mono'
p111
sg16
I400
sg17
g13
sg18
g13
sg19
S'/casa-release-4.6.0-el6/lib/python2.7/site-packages/matplotlib/mpl-data/fonts/ttf/VeraMono.ttf'
p112
sg21
g22
sbag7
(g8
g9
NtRp113
(dp114
g12
g13
sg14
S'cmss10'
p115
sg16
I400
sg17
g13
sg18
g13
sg19
S'/casa-release-4.6.0-el6/lib/python2.7/site-packages/matplotlib/mpl-data/fonts/ttf/cmss10.ttf'
p116
sg21
g22
sbag7
(g8
g9
NtRp117
(dp118
g12
g13
sg14
S'STIXNonUnicode'
p119
sg16
I700
sg17
g13
sg18
g13
sg19
S'/casa-release-4.6.0-el6/lib/python2.7/site-packages/matplotlib/mpl-data/fonts/ttf/STIXNonUniBol.ttf'
p120
sg21
g22
sbag7
(g8
g9
NtRp121
(dp122
g12
g13
sg14
S'STIXSizeFourSym'
p123
sg16
I400
sg17
g13
sg18
g13
sg19
S'/casa-release-4.6.0-el6/lib/python2.7/site-packages/matplotlib/mpl-data/fonts/ttf/STIXSizFourSymReg.ttf'
p124
sg21
g22
sbag7
(g8
g9
NtRp125
(dp126
g12
g13
sg14
S'STIXSizeThreeSym'
p127
sg16
I700
sg17
g13
sg18
g13
sg19
S'/casa-release-4.6.0-el6/lib/python2.7/site-packages/matplotlib/mpl-data/fonts/ttf/STIXSizThreeSymBol.ttf'
p128
sg21
g22
sbag7
(g8
g9
NtRp129
(dp130
g12
g13
sg14
S'STIXSizeOneSym'
p131
sg16
I700
sg17
g13
sg18
g13
sg19
S'/casa-release-4.6.0-el6/lib/python2.7/site-packages/matplotlib/mpl-data/fonts/ttf/STIXSizOneSymBol.ttf'
p132
sg21
g22
sbag7
(g8
g9
NtRp133
(dp134
g12
g25
sg14
S'Bitstream Vera Sans'
p135
sg16
I400
sg17
g13
sg18
g13
sg19
S'/casa-release-4.6.0-el6/lib/python2.7/site-packages/matplotlib/mpl-data/fonts/ttf/VeraIt.ttf'
p136
sg21
g22
sbag7
(g8
g9
NtRp137
(dp138
g12
g13
sg14
S'STIXSizeOneSym'
p139
sg16
I400
sg17
g13
sg18
g13
sg19
S'/casa-release-4.6.0-el6/lib/python2.7/site-packages/matplotlib/mpl-data/fonts/ttf/STIXSizOneSymReg.ttf'
p140
sg21
g22
sbag7
(g8
g9
NtRp141
(dp142
g12
g13
sg14
S'STIXSizeTwoSym'
p143
sg16
I700
sg17
g13
sg18
g13
sg19
S'/casa-release-4.6.0-el6/lib/python2.7/site-packages/matplotlib/mpl-data/fonts/ttf/STIXSizTwoSymBol.ttf'
p144
sg21
g22
sbag7
(g8
g9
NtRp145
(dp146
g12
g13
sg14
S'Bitstream Vera Sans'
p147
sg16
I700
sg17
g13
sg18
g13
sg19
S'/casa-release-4.6.0-el6/lib/python2.7/site-packages/matplotlib/mpl-data/fonts/ttf/VeraBd.ttf'
p148
sg21
g22
sbag7
(g8
g9
NtRp149
(dp150
g12
g13
sg14
S'STIXNonUnicode'
p151
sg16
I400
sg17
g13
sg18
g13
sg19
S'/casa-release-4.6.0-el6/lib/python2.7/site-packages/matplotlib/mpl-data/fonts/ttf/STIXNonUni.ttf'
p152
sg21
g22
sbag7
(g8
g9
NtRp153
(dp154
g12
g25
sg14
S'Bitstream Vera Sans Mono'
p155
sg16
I400
sg17
g13
sg18
g13
sg19
S'/casa-release-4.6.0-el6/lib/python2.7/site-packages/matplotlib/mpl-data/fonts/ttf/VeraMoIt.ttf'
p156
sg21
g22
sbag7
(g8
g9
NtRp157
(dp158
g12
g13
sg14
S'DejaVu Sans Mono'
p159
sg16
I400
sg17
g13
sg18
g13
sg19
S'/usr/share/fonts/truetype/dejavu/DejaVuSansMono.ttf'
p160
sg21
g22
sbag7
(g8
g9
NtRp161
(dp162
g12
g13
sg14
S'DejaVu Serif'
p163
sg16
I700
sg17
g13
sg18
g13
sg19
S'/usr/share/fonts/truetype/dejavu/DejaVuSerif-Bold.ttf'
p164
sg21
g22
sbag7
(g8
g9
NtRp165
(dp166
g12
g13
sg14
S'DejaVu Sans Mono'
p167
sg16
I700
sg17
g13
sg18
g13
sg19
S'/usr/share/fonts/truetype/dejavu/DejaVuSansMono-Bold.ttf'
p168
sg21
g22
sbag7
(g8
g9
NtRp169
(dp170
g12
g13
sg14
S'DejaVu Sans'
p171
sg16
I400
sg17
g13
sg18
g13
sg19
S'/usr/share/fonts/truetype/dejavu/DejaVuSans.ttf'
p172
sg21
g22
sbag7
(g8
g9
NtRp173
(dp174
g12
g13
sg14
S'DejaVu Serif'
p175
sg16
I400
sg17
g13
sg18
g13
sg19
S'/usr/share/fonts/truetype/dejavu/DejaVuSerif.ttf'
p176
sg21
g22
sbag7
(g8
g9
NtRp177
(dp178
g12
g13
sg14
S'DejaVu Sans'
p179
sg16
I700
sg17
g13
sg18
g13
sg19
S'/usr/share/fonts/truetype/dejavu/DejaVuSans-Bold.ttf'
p180
sg21
g22
sbasS'defaultFamily'
p181
(dp182
S'afm'
p183
S'Helvetica'
p184
sS'ttf'
p185
S'Bitstream Vera Sans'
p186
ssS'ttffiles'
p187
(lp188
S'/casa-release-4.6.0-el6/lib/python2.7/site-packages/matplotlib/mpl-data/fonts/ttf/VeraSe.ttf'
p189
aS'/casa-release-4.6.0-el6/lib/python2.7/site-packages/matplotlib/mpl-data/fonts/ttf/VeraMoBI.ttf'
p190
aS'/casa-release-4.6.0-el6/lib/python2.7/site-packages/matplotlib/mpl-data/fonts/ttf/VeraMoBd.ttf'
p191
aS'/casa-release-4.6.0-el6/lib/python2.7/site-packages/matplotlib/mpl-data/fonts/ttf/cmsy10.ttf'
p192
aS'/casa-release-4.6.0-el6/lib/python2.7/site-packages/matplotlib/mpl-data/fonts/ttf/cmr10.ttf'
p193
aS'/casa-release-4.6.0-el6/lib/python2.7/site-packages/matplotlib/mpl-data/fonts/ttf/STIXGeneralBol.ttf'
p194
aS'/casa-release-4.6.0-el6/lib/python2.7/site-packages/matplotlib/mpl-data/fonts/ttf/cmmi10.ttf'
p195
aS'/casa-release-4.6.0-el6/lib/python2.7/site-packages/matplotlib/mpl-data/fonts/ttf/STIXGeneral.ttf'
p196
aS'/casa-release-4.6.0-el6/lib/python2.7/site-packages/matplotlib/mpl-data/fonts/ttf/STIXNonUniIta.ttf'
p197
aS'/casa-release-4.6.0-el6/lib/python2.7/site-packages/matplotlib/mpl-data/fonts/ttf/STIXSizFiveSymReg.ttf'
p198
aS'/casa-release-4.6.0-el6/lib/python2.7/site-packages/matplotlib/mpl-data/fonts/ttf/STIXGeneralItalic.ttf'
p199
aS'/casa-release-4.6.0-el6/lib/python2.7/site-packages/matplotlib/mpl-data/fonts/ttf/VeraBI.ttf'
p200
aS'/casa-release-4.6.0-el6/lib/python2.7/site-packages/matplotlib/mpl-data/fonts/ttf/STIXGeneralBolIta.ttf'
p201
aS'/casa-release-4.6.0-el6/lib/python2.7/site-packages/matplotlib/mpl-data/fonts/ttf/STIXNonUniBolIta.ttf'
p202
aS'/casa-release-4.6.0-el6/lib/python2.7/site-packages/matplotlib/mpl-data/fonts/ttf/STIXSizThreeSymReg.ttf'
p203
aS'/casa-release-4.6.0-el6/lib/python2.7/site-packages/matplotlib/mpl-data/fonts/ttf/STIXSizTwoSymReg.ttf'
p204
aS'/casa-release-4.6.0-el6/lib/python2.7/site-packages/matplotlib/mpl-data/fonts/ttf/cmb10.ttf'
p205
aS'/casa-release-4.6.0-el6/lib/python2.7/site-packages/matplotlib/mpl-data/fonts/ttf/cmtt10.ttf'
p206
aS'/casa-release-4.6.0-el6/lib/python2.7/site-packages/matplotlib/mpl-data/fonts/ttf/VeraSeBd.ttf'
p207
aS'/casa-release-4.6.0-el6/lib/python2.7/site-packages/matplotlib/mpl-data/fonts/ttf/Vera.ttf'
p208
aS'/casa-release-4.6.0-el6/lib/python2.7/site-packages/matplotlib/mpl-data/fonts/ttf/STIXSizFourSymBol.ttf'
p209
aS'/casa-release-4.6.0-el6/lib/python2.7/site-packages/matplotlib/mpl-data/fonts/ttf/cmex10.ttf'
p210
aS'/casa-release-4.6.0-el6/lib/python2.7/site-packages/matplotlib/mpl-data/fonts/ttf/VeraMono.ttf'
p211
aS'/casa-release-4.6.0-el6/lib/python2.7/site-packages/matplotlib/mpl-data/fonts/ttf/cmss10.ttf'
p212
aS'/casa-release-4.6.0-el6/lib/python2.7/site-packages/matplotlib/mpl-data/fonts/ttf/STIXNonUniBol.ttf'
p213
aS'/casa-release-4.6.0-el6/lib/python2.7/site-packages/matplotlib/mpl-data/fonts/ttf/STIXSizFourSymReg.ttf'
p214
aS'/casa-release-4.6.0-el6/lib/python2.7/site-packages/matplotlib/mpl-data/fonts/ttf/STIXSizThreeSymBol.ttf'
p215
aS'/casa-release-4.6.0-el6/lib/python2.7/site-packages/matplotlib/mpl-data/fonts/ttf/STIXSizOneSymBol.ttf'
p216
aS'/casa-release-4.6.0-el6/lib/python2.7/site-packages/matplotlib/mpl-data/fonts/ttf/VeraIt.ttf'
p217
aS'/casa-release-4.6.0-el6/lib/python2.7/site-packages/matplotlib/mpl-data/fonts/ttf/STIXSizOneSymReg.ttf'
p218
aS'/casa-release-4.6.0-el6/lib/python2.7/site-packages/matplotlib/mpl-data/fonts/ttf/STIXSizTwoSymBol.ttf'
p219
aS'/casa-release-4.6.0-el6/lib/python2.7/site-packages/matplotlib/mpl-data/fonts/ttf/VeraBd.ttf'
p220
aS'/casa-release-4.6.0-el6/lib/python2.7/site-packages/matplotlib/mpl-data/fonts/ttf/STIXNonUni.ttf'
p221
aS'/casa-release-4.6.0-el6/lib/python2.7/site-packages/matplotlib/mpl-data/fonts/ttf/VeraMoIt.ttf'
p222
aS'/usr/share/fonts/truetype/dejavu/DejaVuSansMono.ttf'
p223
aS'/usr/share/fonts/truetype/dejavu/DejaVuSerif-Bold.ttf'
p224
aS'/usr/share/fonts/truetype/dejavu/DejaVuSansMono-Bold.ttf'
p225
aS'/usr/share/fonts/truetype/dejavu/DejaVuSans.ttf'
p226
aS'/usr/share/fonts/truetype/dejavu/DejaVuSerif.ttf'
p227
aS'/usr/share/fonts/truetype/dejavu/DejaVuSans-Bold.ttf'
p228
asS'_FontManager__default_weight'
p229
g13
sS'_version'
p230
I7
sS'ttf_lookup_cache'
p231
(dp232
sS'default_size'
p233
NsS'defaultFont'
p234
(dp235
g183
Nsg185
g208
ssS'afmfiles'
p236
(lp237
S'/casa-release-4.6.0-el6/lib/python2.7/site-packages/matplotlib/mpl-data/fonts/afm/pplb8a.afm'
p238
aS'/casa-release-4.6.0-el6/lib/python2.7/site-packages/matplotlib/mpl-data/fonts/pdfcorefonts/Helvetica.afm'
p239
aS'/casa-release-4.6.0-el6/lib/python2.7/site-packages/matplotlib/mpl-data/fonts/afm/cmex10.afm'
p240
aS'/casa-release-4.6.0-el6/lib/python2.7/site-packages/matplotlib/mpl-data/fonts/pdfcorefonts/Courier-BoldOblique.afm'
p241
aS'/casa-release-4.6.0-el6/lib/python2.7/site-packages/matplotlib/mpl-data/fonts/afm/pbkd8a.afm'
p242
aS'/casa-release-4.6.0-el6/lib/python2.7/site-packages/matplotlib/mpl-data/fonts/afm/pzcmi8a.afm'
p243
aS'/casa-release-4.6.0-el6/lib/python2.7/site-packages/matplotlib/mpl-data/fonts/afm/putb8a.afm'
p244
aS'/casa-release-4.6.0-el6/lib/python2.7/site-packages/matplotlib/mpl-data/fonts/afm/pcrro8a.afm'
p245
aS'/casa-release-4.6.0-el6/lib/python2.7/site-packages/matplotlib/mpl-data/fonts/pdfcorefonts/Helvetica-Bold.afm'
p246
aS'/casa-release-4.6.0-el6/lib/python2.7/site-packages/matplotlib/mpl-data/fonts/afm/pplr8a.afm'
p247
aS'/casa-release-4.6.0-el6/lib/python2.7/site-packages/matplotlib/mpl-data/fonts/afm/phvbo8a.afm'
p248
aS'/casa-release-4.6.0-el6/lib/python2.7/site-packages/matplotlib/mpl-data/fonts/afm/cmsy10.afm'
p249
aS'/casa-release-4.6.0-el6/lib/python2.7/site-packages/matplotlib/mpl-data/fonts/afm/ptmri8a.afm'
p250
aS'/casa-release-4.6.0-el6/lib/python2.7/site-packages/matplotlib/mpl-data/fonts/afm/phvb8a.afm'
p251
aS'/casa-release-4.6.0-el6/lib/python2.7/site-packages/matplotlib/mpl-data/fonts/afm/ptmb8a.afm'
p252
aS'/casa-release-4.6.0-el6/lib/python2.7/site-packages/matplotlib/mpl-data/fonts/afm/pbkli8a.afm'
p253
aS'/casa-release-4.6.0-el6/lib/python2.7/site-packages/matplotlib/mpl-data/fonts/afm/putr8a.afm'
p254
aS'/casa-release-4.6.0-el6/lib/python2.7/site-packages/matplotlib/mpl-data/fonts/pdfcorefonts/Symbol.afm'
p255
aS'/casa-release-4.6.0-el6/lib/python2.7/site-packages/matplotlib/mpl-data/fonts/afm/phvro8an.afm'
p256
aS'/casa-release-4.6.0-el6/lib/python2.7/site-packages/matplotlib/mpl-data/fonts/afm/phvb8an.afm'
p257
aS'/casa-release-4.6.0-el6/lib/python2.7/site-packages/matplotlib/mpl-data/fonts/pdfcorefonts/Times-BoldItalic.afm'
p258
aS'/casa-release-4.6.0-el6/lib/python2.7/site-packages/matplotlib/mpl-data/fonts/afm/pncr8a.afm'
p259
aS'/casa-release-4.6.0-el6/lib/python2.7/site-packages/matplotlib/mpl-data/fonts/afm/phvlo8a.afm'
p260
aS'/casa-release-4.6.0-el6/lib/python2.7/site-packages/matplotlib/mpl-data/fonts/afm/pcrr8a.afm'
p261
aS'/casa-release-4.6.0-el6/lib/python2.7/site-packages/matplotlib/mpl-data/fonts/afm/pplbi8a.afm'
p262
aS'/casa-release-4.6.0-el6/lib/python2.7/site-packages/matplotlib/mpl-data/fonts/afm/pzdr.afm'
p263
aS'/casa-release-4.6.0-el6/lib/python2.7/site-packages/matplotlib/mpl-data/fonts/afm/phvl8a.afm'
p264
aS'/casa-release-4.6.0-el6/lib/python2.7/site-packages/matplotlib/mpl-data/fonts/afm/pagdo8a.afm'
p265
aS'/casa-release-4.6.0-el6/lib/python2.7/site-packages/matplotlib/mpl-data/fonts/afm/pcrbo8a.afm'
p266
aS'/casa-release-4.6.0-el6/lib/python2.7/site-packages/matplotlib/mpl-data/fonts/afm/pncri8a.afm'
p267
aS'/casa-release-4.6.0-el6/lib/python2.7/site-packages/matplotlib/mpl-data/fonts/pdfcorefonts/Times-Italic.afm'
p268
aS'/casa-release-4.6.0-el6/lib/python2.7/site-packages/matplotlib/mpl-data/fonts/pdfcorefonts/Courier.afm'
p269
aS'/casa-release-4.6.0-el6/lib/python2.7/site-packages/matplotlib/mpl-data/fonts/afm/phvr8a.afm'
p270
aS'/casa-release-4.6.0-el6/lib/python2.7/site-packages/matplotlib/mpl-data/fonts/pdfcorefonts/ZapfDingbats.afm'
p271
aS'/casa-release-4.6.0-el6/lib/python2.7/site-packages/matplotlib/mpl-data/fonts/pdfcorefonts/Courier-Bold.afm'
p272
aS'/casa-release-4.6.0-el6/lib/python2.7/site-packages/matplotlib/mpl-data/fonts/afm/phvr8an.afm'
p273
aS'/casa-release-4.6.0-el6/lib/python2.7/site-packages/matplotlib/mpl-data/fonts/afm/psyr.afm'
p274
aS'/casa-release-4.6.0-el6/lib/python2.7/site-packages/matplotlib/mpl-data/fonts/afm/phvbo8an.afm'
p275
aS'/casa-release-4.6.0-el6/lib/python2.7/site-packages/matplotlib/mpl-data/fonts/pdfcorefonts/Helvetica-BoldOblique.afm'
p276
aS'/casa-release-4.6.0-el6/lib/python2.7/site-packages/matplotlib/mpl-data/fonts/afm/pcrb8a.afm'
p277
aS'/casa-release-4.6.0-el6/lib/python2.7/site-packages/matplotlib/mpl-data/fonts/afm/cmmi10.afm'
p278
aS'/casa-release-4.6.0-el6/lib/python2.7/site-packages/matplotlib/mpl-data/fonts/pdfcorefonts/Times-Roman.afm'
p279
aS'/casa-release-4.6.0-el6/lib/python2.7/site-packages/matplotlib/mpl-data/fonts/afm/putri8a.afm'
p280
aS'/casa-release-4.6.0-el6/lib/python2.7/site-packages/matplotlib/mpl-data/fonts/pdfcorefonts/Times-Bold.afm'
p281
aS'/casa-release-4.6.0-el6/lib/python2.7/site-packages/matplotlib/mpl-data/fonts/afm/pbkl8a.afm'
p282
aS'/casa-release-4.6.0-el6/lib/python2.7/site-packages/matplotlib/mpl-data/fonts/afm/cmr10.afm'
p283
aS'/casa-release-4.6.0-el6/lib/python2.7/site-packages/matplotlib/mpl-data/fonts/afm/pagk8a.afm'
p284
aS'/casa-release-4.6.0-el6/lib/python2.7/site-packages/matplotlib/mpl-data/fonts/afm/phvro8a.afm'
p285
aS'/casa-release-4.6.0-el6/lib/python2.7/site-packages/matplotlib/mpl-data/fonts/afm/pplri8a.afm'
p286
aS'/casa-release-4.6.0-el6/lib/python2.7/site-packages/matplotlib/mpl-data/fonts/afm/pagko8a.afm'
p287
aS'/casa-release-4.6.0-el6/lib/python2.7/site-packages/matplotlib/mpl-data/fonts/afm/putbi8a.afm'
p288
aS'/casa-release-4.6.0-el6/lib/python2.7/site-packages/matplotlib/mpl-data/fonts/pdfcorefonts/Helvetica-Oblique.afm'
p289
aS'/casa-release-4.6.0-el6/lib/python2.7/site-packages/matplotlib/mpl-data/fonts/pdfcorefonts/Courier-Oblique.afm'
p290
aS'/casa-release-4.6.0-el6/lib/python2.7/site-packages/matplotlib/mpl-data/fonts/afm/pbkdi8a.afm'
p291
aS'/casa-release-4.6.0-el6/lib/python2.7/site-packages/matplotlib/mpl-data/fonts/afm/pagd8a.afm'
p292
aS'/casa-release-4.6.0-el6/lib/python2.7/site-packages/matplotlib/mpl-data/fonts/afm/pncbi8a.afm'
p293
aS'/casa-release-4.6.0-el6/lib/python2.7/site-packages/matplotlib/mpl-data/fonts/afm/ptmr8a.afm'
p294
aS'/casa-release-4.6.0-el6/lib/python2.7/site-packages/matplotlib/mpl-data/fonts/afm/pncb8a.afm'
p295
aS'/casa-release-4.6.0-el6/lib/python2.7/site-packages/matplotlib/mpl-data/fonts/afm/cmtt10.afm'
p296
aS'/casa-release-4.6.0-el6/lib/python2.7/site-packages/matplotlib/mpl-data/fonts/afm/ptmbi8a.afm'
p297
asS'afmlist'
p298
(lp299
g7
(g8
g9
NtRp300
(dp301
g12
g13
sg14
S'Palatino'
p302
sg16
I700
sg17
g13
sg18
g13
sg19
g238
sg21
g22
sbag7
(g8
g9
NtRp303
(dp304
g12
g13
sg14
S'Helvetica'
p305
sg16
I500
sg17
g13
sg18
g13
sg19
g239
sg21
g22
sbag7
(g8
g9
NtRp306
(dp307
g12
g13
sg14
S'Computer Modern'
p308
sg16
I500
sg17
g13
sg18
g13
sg19
g240
sg21
g22
sbag7
(g8
g9
NtRp309
(dp310
g12
g54
sg14
S'Courier'
p311
sg16
I700
sg17
g13
sg18
g13
sg19
g241
sg21
g22
sbag7
(g8
g9
NtRp312
(dp313
g12
g13
sg14
S'ITC Bookman'
p314
sg16
I600
sg17
g13
sg18
g13
sg19
g242
sg21
g22
sbag7
(g8
g9
NtRp315
(dp316
g12
g54
sg14
S'ITC Zapf Chancery'
p317
sg16
I500
sg17
g13
sg18
g13
sg19
g243
sg21
g22
sbag7
(g8
g9
NtRp318
(dp319
g12
g13
sg14
S'Utopia'
p320
sg16
I700
sg17
g13
sg18
g13
sg19
g244
sg21
g22
sbag7
(g8
g9
NtRp321
(dp322
g12
g54
sg14
S'Courier'
p323
sg16
I500
sg17
g13
sg18
g13
sg19
g245
sg21
g22
sbag7
(g8
g9
NtRp324
(dp325
g12
g13
sg14
S'Helvetica'
p326
sg16
I700
sg17
g13
sg18
g13
sg19
g246
sg21
g22
sbag7
(g8
g9
NtRp327
(dp328
g12
g13
sg14
S'Palatino'
p329
sg16
I500
sg17
g13
sg18
g13
sg19
g247
sg21
g22
sbag7
(g8
g9
NtRp330
(dp331
g12
g54
sg14
S'Helvetica'
p332
sg16
I700
sg17
g13
sg18
g13
sg19
g248
sg21
g22
sbag7
(g8
g9
NtRp333
(dp334
g12
g54
sg14
S'Computer Modern'
p335
sg16
I500
sg17
g13
sg18
g13
sg19
g249
sg21
g22
sbag7
(g8
g9
NtRp336
(dp337
g12
g54
sg14
S'Times'
p338
sg16
I500
sg17
g13
sg18
g13
sg19
g250
sg21
g22
sbag7
(g8
g9
NtRp339
(dp340
g12
g13
sg14
S'Helvetica'
p341
sg16
I700
sg17
g13
sg18
g13
sg19
g251
sg21
g22
sbag7
(g8
g9
NtRp342
(dp343
g12
g13
sg14
S'Times'
p344
sg16
I700
sg17
g13
sg18
g13
sg19
g252
sg21
g22
sbag7
(g8
g9
NtRp345
(dp346
g12
g54
sg14
S'ITC Bookman'
p347
sg16
I200
sg17
g13
sg18
g13
sg19
g253
sg21
g22
sbag7
(g8
g9
NtRp348
(dp349
g12
g13
sg14
S'Utopia'
p350
sg16
I400
sg17
g13
sg18
g13
sg19
g254
sg21
g22
sbag7
(g8
g9
NtRp351
(dp352
g12
g13
sg14
S'Symbol'
p353
sg16
I500
sg17
g13
sg18
g13
sg19
g255
sg21
g22
sbag7
(g8
g9
NtRp354
(dp355
g12
g54
sg14
S'Helvetica'
p356
sg16
I500
sg17
S'condensed'
p357
sg18
g13
sg19
g256
sg21
g22
sbag7
(g8
g9
NtRp358
(dp359
g12
g13
sg14
S'Helvetica'
p360
sg16
I700
sg17
g357
sg18
g13
sg19
g257
sg21
g22
sbag7
(g8
g9
NtRp361
(dp362
g12
g54
sg14
S'Times'
p363
sg16
I700
sg17
g13
sg18
g13
sg19
g258
sg21
g22
sbag7
(g8
g9
NtRp364
(dp365
g12
g13
sg14
S'New Century Schoolbook'
p366
sg16
I500
sg17
g13
sg18
g13
sg19
g259
sg21
g22
sbag7
(g8
g9
NtRp367
(dp368
g12
g54
sg14
S'Helvetica'
p369
sg16
I200
sg17
g13
sg18
g13
sg19
g260
sg21
g22
sbag7
(g8
g9
NtRp370
(dp371
g12
g13
sg14
S'Courier'
p372
sg16
I500
sg17
g13
sg18
g13
sg19
g261
sg21
g22
sbag7
(g8
g9
NtRp373
(dp374
g12
g54
sg14
S'Palatino'
p375
sg16
I700
sg17
g13
sg18
g13
sg19
g262
sg21
g22
sbag7
(g8
g9
NtRp376
(dp377
g12
g13
sg14
S'ITC Zapf Dingbats'
p378
sg16
I500
sg17
g13
sg18
g13
sg19
g263
sg21
g22
sbag7
(g8
g9
NtRp379
(dp380
g12
g13
sg14
S'Helvetica'
p381
sg16
I200
sg17
g13
sg18
g13
sg19
g264
sg21
g22
sbag7
(g8
g9
NtRp382
(dp383
g12
g54
sg14
S'ITC Avant Garde Gothic'
p384
sg16
I600
sg17
g13
sg18
g13
sg19
g265
sg21
g22
sbag7
(g8
g9
NtRp385
(dp386
g12
g54
sg14
S'Courier'
p387
sg16
I700
sg17
g13
sg18
g13
sg19
g266
sg21
g22
sbag7
(g8
g9
NtRp388
(dp389
g12
g54
sg14
S'New Century Schoolbook'
p390
sg16
I500
sg17
g13
sg18
g13
sg19
g267
sg21
g22
sbag7
(g8
g9
NtRp391
(dp392
g12
g54
sg14
S'Times'
p393
sg16
I500
sg17
g13
sg18
g13
sg19
g268
sg21
g22
sbag7
(g8
g9
NtRp394
(dp395
g12
g13
sg14
S'Courier'
p396
sg16
I500
sg17
g13
sg18
g13
sg19
g269
sg21
g22
sbag7
(g8
g9
NtRp397
(dp398
g12
g13
sg14
S'Helvetica'
p399
sg16
I500
sg17
g13
sg18
g13
sg19
g270
sg21
g22
sbag7
(g8
g9
NtRp400
(dp401
g12
g13
sg14
S'ZapfDingbats'
p402
sg16
I500
sg17
g13
sg18
g13
sg19
g271
sg21
g22
sbag7
(g8
g9
NtRp403
(dp404
g12
g13
sg14
S'Courier'
p405
sg16
I700
sg17
g13
sg18
g13
sg19
g272
sg21
g22
sbag7
(g8
g9
NtRp406
(dp407
g12
g13
sg14
S'Helvetica'
p408
sg16
I500
sg17
g357
sg18
g13
sg19
g273
sg21
g22
sbag7
(g8
g9
NtRp409
(dp410
g12
g13
sg14
S'Symbol'
p411
sg16
I500
sg17
g13
sg18
g13
sg19
g274
sg21
g22
sbag7
(g8
g9
NtRp412
(dp413
g12
g54
sg14
S'Helvetica'
p414
sg16
I700
sg17
g357
sg18
g13
sg19
g275
sg21
g22
sbag7
(g8
g9
NtRp415
(dp416
g12
g54
sg14
S'Helvetica'
p417
sg16
I700
sg17
g13
sg18
g13
sg19
g276
sg21
g22
sbag7
(g8
g9
NtRp418
(dp419
g12
g13
sg14
S'Courier'
p420
sg16
I700
sg17
g13
sg18
g13
sg19
g277
sg21
g22
sbag7
(g8
g9
NtRp421
(dp422
g12
g54
sg14
S'Computer Modern'
p423
sg16
I500
sg17
g13
sg18
g13
sg19
g278
sg21
g22
sbag7
(g8
g9
NtRp424
(dp425
g12
g13
sg14
S'Times'
p426
sg16
I500
sg17
g13
sg18
g13
sg19
g279
sg21
g22
sbag7
(g8
g9
NtRp427
(dp428
g12
g54
sg14
S'Utopia'
p429
sg16
I400
sg17
g13
sg18
g13
sg19
g280
sg21
g22
sbag7
(g8
g9
NtRp430
(dp431
g12
g13
sg14
S'Times'
p432
sg16
I700
sg17
g13
sg18
g13
sg19
g281
sg21
g22
sbag7
(g8
g9
NtRp433
(dp434
g12
g13
sg14
S'ITC Bookman'
p435
sg16
I200
sg17
g13
sg18
g13
sg19
g282
sg21
g22
sbag7
(g8
g9
NtRp436
(dp437
g12
g13
sg14
S'Computer Modern'
p438
sg16
I500
sg17
g13
sg18
g13
sg19
g283
sg21
g22
sbag7
(g8
g9
NtRp439
(dp440
g12
g13
sg14
S'ITC Avant Garde Gothic'
p441
sg16
I400
sg17
g13
sg18
g13
sg19
g284
sg21
g22
sbag7
(g8
g9
NtRp442
(dp443
g12
g54
sg14
S'Helvetica'
p444
sg16
I500
sg17
g13
sg18
g13
sg19
g285
sg21
g22
sbag7
(g8
g9
NtRp445
(dp446
g12
g54
sg14
S'Palatino'
p447
sg16
I500
sg17
g13
sg18
g13
sg19
g286
sg21
g22
sbag7
(g8
g9
NtRp448
(dp449
g12
g54
sg14
S'ITC Avant Garde Gothic'
p450
sg16
I400
sg17
g13
sg18
g13
sg19
g287
sg21
g22
sbag7
(g8
g9
NtRp451
(dp452
g12
g54
sg14
S'Utopia'
p453
sg16
I700
sg17
g13
sg18
g13
sg19
g288
sg21
g22
sbag7
(g8
g9
NtRp454
(dp455
g12
g54
sg14
S'Helvetica'
p456
sg16
I500
sg17
g13
sg18
g13
sg19
g289
sg21
g22
sbag7
(g8
g9
NtRp457
(dp458
g12
g54
sg14
S'Courier'
p459
sg16
I500
sg17
g13
sg18
g13
sg19
g290
sg21
g22
sbag7
(g8
g9
NtRp460
(dp461
g12
g54
sg14
S'ITC Bookman'
p462
sg16
I600
sg17
g13
sg18
g13
sg19
g291
sg21
g22
sbag7
(g8
g9
NtRp463
(dp464
g12
g13
sg14
S'ITC Avant Garde Gothic'
p465
sg16
I600
sg17
g13
sg18
g13
sg19
g292
sg21
g22
sbag7
(g8
g9
NtRp466
(dp467
g12
g54
sg14
S'New Century Schoolbook'
p468
sg16
I700
sg17
g13
sg18
g13
sg19
g293
sg21
g22
sbag7
(g8
g9
NtRp469
(dp470
g12
g13
sg14
S'Times'
p471
sg16
I500
sg17
g13
sg18
g13
sg19
g294
sg21
g22
sbag7
(g8
g9
NtRp472
(dp473
g12
g13
sg14
S'New Century Schoolbook'
p474
sg16
I700
sg17
g13
sg18
g13
sg19
g295
sg21
g22
sbag7
(g8
g9
NtRp475
(dp476
g12
g13
sg14
S'Computer Modern'
p477
sg16
I500
sg17
g13
sg18
g13
sg19
g296
sg21
g22
sbag7
(g8
g9
NtRp478
(dp479
g12
g54
sg14
S'Times'
p480
sg16
I700
sg17
g13
sg18
g13
sg19
g297
sg21
g22
sbasb.